Certificate:
    Data:
        Version: 3 (0x2)
        Serial Number: 16924006939124634247 (0xeade26a4d6c51287)
    Signature Algorithm: sha256WithRSAEncryption
        Issuer: C=XX, ST=Karnataka, O=Default Company Ltd, CN=localhost
        Validity
            Not Before: Apr  9 12:47:22 2016 GMT
            Not After : Apr  9 12:47:22 2019 GMT
        Subject: C=XX, ST=Karnataka, O=Default Company Ltd, CN=localhost
        Subject Public Key Info:
            Public Key Algorithm: rsaEncryption
                Public-Key: (2048 bit)
                Modulus:
                    00:af:40:49:16:93:be:7e:7e:f9:e0:c3:a9:77:26:
                    53:85:67:04:2f:d2:3d:c7:c9:54:3a:26:56:97:42:
                    fd:8f:5e:aa:9e:24:f4:95:9a:96:f2:ac:43:37:43:
                    8b:aa:47:f8:16:50:72:ba:b1:5b:ea:ca:bc:4f:9c:
                    e6:b0:54:75:d8:67:b8:64:40:72:4e:ea:12:4b:33:
                    a1:5f:49:c2:46:de:12:9e:5d:e1:67:96:c9:24:49:
                    c8:bf:24:be:25:1a:d0:79:74:0b:c3:f3:9b:23:50:
                    7c:5a:a6:85:c6:b4:97:64:98:47:e5:02:3f:03:9e:
                    66:4a:82:6f:62:eb:b8:fb:fa:b2:41:79:5e:45:5c:
                    ba:47:ec:d8:8a:81:c6:e5:4c:52:f3:3d:a4:28:47:
                    ca:bf:45:3d:6c:c9:ea:d6:9f:ad:1a:cb:d1:2e:e1:
                    e7:42:5a:cb:de:c7:f4:a3:b0:fa:a8:82:dd:61:b1:
                    1e:81:c3:0c:b9:08:6a:f8:ac:6c:78:6e:73:87:33:
                    20:84:0c:23:e3:10:a2:2b:ec:84:0c:6d:60:b7:41:
                    b7:4c:6f:9d:c0:5d:8f:d4:bf:69:49:56:ed:48:e4:
                    d5:2d:6d:37:df:35:07:33:34:01:27:7e:4c:cc:b3:
                    21:f9:4f:3c:f9:06:13:57:cc:cd:72:ef:a3:ea:9c:
                    03:8b
                Exponent: 65537 (0x10001)
        X509v3 extensions:
            X509v3 Subject Key Identifier: 
                68:0A:16:A1:C1:E2:A5:7C:C3:53:CB:BA:98:93:08:53:F6:BA:96:2E
            X509v3 Authority Key Identifier: 
                keyid:68:0A:16:A1:C1:E2:A5:7C:C3:53:CB:BA:98:93:08:53:F6:BA:96:2E

            X509v3 Basic Constraints: 
                CA:TRUE
    Signature Algorithm: sha256WithRSAEncryption
         2d:ed:44:4e:d8:9a:94:90:7c:0c:58:f8:0f:99:d7:6d:f2:31:
         96:d8:36:1c:66:8b:a9:66:f7:e9:e0:90:03:93:64:fc:8c:b0:
         c5:4d:02:0d:7a:0d:59:25:c4:a4:94:83:31:4b:b4:d9:1a:75:
         76:a8:de:36:78:d1:36:22:47:56:c9:05:1d:d1:a6:64:02:de:
         ba:8b:3f:bb:aa:ce:56:16:05:24:79:2c:9e:11:c4:e9:96:41:
         c0:df:a7:3f:ba:8e:f0:fe:b3:2a:af:25:36:bc:2c:f7:e1:73:
         df:7c:9e:e0:1f:6b:29:52:85:d4:f8:db:98:ce:41:36:f3:56:
         77:f0:6f:0e:da:db:ce:df:c7:9d:37:b8:63:11:dd:49:a2:94:
         96:16:10:3a:8e:f8:23:60:b7:05:63:2c:26:42:a0:69:e8:15:
         5f:e7:59:e4:26:72:51:2c:29:bd:94:11:84:06:42:c7:72:13:
         5c:96:e8:af:b7:05:20:a0:8c:70:70:40:6b:18:8f:90:fb:54:
         97:fe:0d:5c:c7:da:a9:67:d7:0b:fd:84:22:8d:d9:6e:11:d8:
         ef:fe:db:d7:e0:47:91:f0:5c:67:ff:06:9e:a4:19:78:ab:64:
         a5:a3:f7:cc:2d:70:32:0d:41:08:ae:10:1f:c6:e4:a5:f1:a7:
         ed:ec:2d:a5
-----BEGIN CERTIFICATE-----
MIIDeTCCAmGgAwIBAgIJAOreJqTWxRKHMA0GCSqGSIb3DQEBCwUAMFMxCzAJBgNV
BAYTAlhYMRIwEAYDVQQIDAlLYXJuYXRha2ExHDAaBgNVBAoME0RlZmF1bHQgQ29t
cGFueSBMdGQxEjAQBgNVBAMMCWxvY2FsaG9zdDAeFw0xNjA0MDkxMjQ3MjJaFw0x
OTA0MDkxMjQ3MjJaMFMxCzAJBgNVBAYTAlhYMRIwEAYDVQQIDAlLYXJuYXRha2Ex
HDAaBgNVBAoME0RlZmF1bHQgQ29tcGFueSBMdGQxEjAQBgNVBAMMCWxvY2FsaG9z
dDCCASIwDQYJKoZIhvcNAQEBBQADggEPADCCAQoCggEBAK9ASRaTvn5++eDDqXcm
U4VnBC/SPcfJVDomVpdC/Y9eqp4k9JWalvKsQzdDi6pH+BZQcrqxW+rKvE+c5rBU
ddhnuGRAck7qEkszoV9JwkbeEp5d4WeWySRJyL8kviUa0Hl0C8PzmyNQfFqmhca0
l2SYR+UCPwOeZkqCb2LruPv6skF5XkVcukfs2IqBxuVMUvM9pChHyr9FPWzJ6taf
rRrL0S7h50Jay97H9KOw+qiC3WGxHoHDDLkIavisbHhuc4czIIQMI+MQoivshAxt
YLdBt0xvncBdj9S/aUlW7Ujk1S1tN981BzM0ASd+TMyzIflPPPkGE1fMzXLvo+qc
A4sCAwEAAaNQME4wHQYDVR0OBBYEFGgKFqHB4qV8w1PLupiTCFP2upYuMB8GA1Ud
IwQYMBaAFGgKFqHB4qV8w1PLupiTCFP2upYuMAwGA1UdEwQFMAMBAf8wDQYJKoZI
hvcNAQELBQADggEBAC3tRE7YmpSQfAxY+A+Z123yMZbYNhxmi6lm9+ngkAOTZPyM
sMVNAg16DVklxKSUgzFLtNkadXao3jZ40TYiR1bJBR3RpmQC3rqLP7uqzlYWBSR5
LJ4RxOmWQcDfpz+6jvD+syqvJTa8LPfhc998nuAfaylShdT425jOQTbzVnfwbw7a
287fx503uGMR3UmilJYWEDqO+CNgtwVjLCZCoGnoFV/nWeQmclEsKb2UEYQGQsdy
E1yW6K+3BSCgjHBwQGsYj5D7VJf+DVzH2qln1wv9hCKN2W4R2O/+29fgR5HwXGf/
Bp6kGXirZKWj98wtcDINQQiuEB/G5KXxp+3sLaU=
-----END CERTIFICATE-----
