Certificate:
    Data:
        Version: 3 (0x2)
        Serial Number: 16924006939124634250 (0xeade26a4d6c5128a)
    Signature Algorithm: sha256WithRSAEncryption
        Issuer: C=XX, ST=Karnataka, O=Default Company Ltd, CN=localhost
        Validity
            Not Before: Apr  9 12:47:23 2016 GMT
            Not After : Apr  9 12:47:23 2017 GMT
        Subject: C=XX, ST=Karnataka, L=Default City, O=Default Company Ltd, CN=localhost/emailAddress=recipient@example.com
        Subject Public Key Info:
            Public Key Algorithm: rsaEncryption
                Public-Key: (2048 bit)
                Modulus:
                    00:bf:e2:55:51:b4:34:4c:24:4a:49:0f:ef:04:c3:
                    84:a5:b8:9e:4e:27:b1:41:2a:e3:2f:9f:c6:84:0b:
                    e0:bd:65:04:7a:de:b5:17:bc:bb:c6:1f:8a:1c:bb:
                    e2:2c:0a:84:32:b7:3f:7d:b8:8d:95:d9:38:66:f3:
                    3a:88:45:ac:1f:06:b4:6e:bb:87:37:15:da:4d:7b:
                    8d:d8:f9:5e:f3:71:92:bf:bd:86:59:c1:0f:ce:08:
                    4c:e5:32:e7:1d:cc:c4:97:76:98:b0:cf:e4:1c:d6:
                    16:42:69:60:e0:90:54:b5:7e:88:1b:3b:c5:4f:0a:
                    ae:77:da:07:64:3c:f1:c0:1e:cd:f3:5a:4f:dd:68:
                    de:cf:e0:74:5d:91:8a:f8:7f:72:03:be:f3:32:c5:
                    bd:29:3d:bc:b0:00:26:7f:a8:1d:ec:cd:f5:c9:73:
                    4a:1e:95:8a:d5:20:6f:bb:cb:dc:82:bf:a6:9e:f2:
                    ef:92:ae:db:dd:01:6c:ca:12:5c:f9:c9:93:fe:15:
                    88:07:b9:65:ef:f0:cc:64:a0:cd:cd:2c:b4:cc:df:
                    84:79:fb:c9:6b:e9:dc:0c:ee:35:00:ee:55:88:d3:
                    0f:e6:53:f9:60:ef:84:0d:23:e3:a2:a2:6e:6f:a1:
                    14:4c:69:47:c5:61:6b:ef:6b:99:16:e2:53:2d:77:
                    70:c3
                Exponent: 65537 (0x10001)
        X509v3 extensions:
            X509v3 Basic Constraints: 
                CA:FALSE
            Netscape Comment: 
                OpenSSL Generated Certificate
            X509v3 Subject Key Identifier: 
                22:14:88:35:55:06:BB:D3:8B:02:0B:42:57:FA:75:55:81:E8:E8:7C
            X509v3 Authority Key Identifier: 
                keyid:68:0A:16:A1:C1:E2:A5:7C:C3:53:CB:BA:98:93:08:53:F6:BA:96:2E

    Signature Algorithm: sha256WithRSAEncryption
         27:3e:0c:6b:7f:aa:87:13:0e:77:19:4a:67:93:ef:48:22:ed:
         a5:64:75:27:da:69:f9:7b:bc:ec:2b:33:e0:45:62:09:71:02:
         82:dc:40:cb:17:c2:3b:fb:ad:21:fc:04:b8:58:ad:16:6a:51:
         59:cf:3b:02:59:f9:7f:25:07:22:df:89:44:57:f7:12:ae:9f:
         bc:9e:83:fd:73:ed:8d:d0:25:1c:66:2b:cf:c5:61:f2:00:8e:
         09:f9:de:1b:46:f9:ce:5c:98:3d:3e:ca:1d:c5:80:f9:62:db:
         6a:85:3b:62:4c:76:ca:b2:e4:55:55:4a:2d:2d:8e:1f:50:6b:
         f5:30:e3:31:3c:65:bd:74:2c:7d:93:7f:0f:14:0a:40:12:8b:
         35:19:6f:f0:3d:7b:73:99:79:19:05:8c:94:51:a2:4b:86:9c:
         74:bc:15:7e:54:c7:9e:33:a4:99:e0:1e:e2:60:07:fd:95:1d:
         71:af:44:e2:95:33:92:27:7c:5c:15:86:dd:1e:cd:35:1d:e4:
         07:13:00:16:fd:28:f9:80:a0:63:72:a8:b5:7e:ac:8a:33:06:
         d6:a1:9d:8f:ef:a9:7f:c9:c5:83:23:3d:33:48:11:77:3c:53:
         4f:f0:a6:03:04:cd:d2:7f:88:da:20:e4:cd:44:94:a2:80:da:
         ec:d4:ec:5f
-----BEGIN CERTIFICATE-----
MIID4jCCAsqgAwIBAgIJAOreJqTWxRKKMA0GCSqGSIb3DQEBCwUAMFMxCzAJBgNV
BAYTAlhYMRIwEAYDVQQIDAlLYXJuYXRha2ExHDAaBgNVBAoME0RlZmF1bHQgQ29t
cGFueSBMdGQxEjAQBgNVBAMMCWxvY2FsaG9zdDAeFw0xNjA0MDkxMjQ3MjNaFw0x
NzA0MDkxMjQ3MjNaMIGQMQswCQYDVQQGEwJYWDESMBAGA1UECAwJS2FybmF0YWth
MRUwEwYDVQQHDAxEZWZhdWx0IENpdHkxHDAaBgNVBAoME0RlZmF1bHQgQ29tcGFu
eSBMdGQxEjAQBgNVBAMMCWxvY2FsaG9zdDEkMCIGCSqGSIb3DQEJARYVcmVjaXBp
ZW50QGV4YW1wbGUuY29tMIIBIjANBgkqhkiG9w0BAQEFAAOCAQ8AMIIBCgKCAQEA
v+JVUbQ0TCRKSQ/vBMOEpbieTiexQSrjL5/GhAvgvWUEet61F7y7xh+KHLviLAqE
Mrc/fbiNldk4ZvM6iEWsHwa0bruHNxXaTXuN2Ple83GSv72GWcEPzghM5TLnHczE
l3aYsM/kHNYWQmlg4JBUtX6IGzvFTwqud9oHZDzxwB7N81pP3Wjez+B0XZGK+H9y
A77zMsW9KT28sAAmf6gd7M31yXNKHpWK1SBvu8vcgr+mnvLvkq7b3QFsyhJc+cmT
/hWIB7ll7/DMZKDNzSy0zN+EefvJa+ncDO41AO5ViNMP5lP5YO+EDSPjoqJub6EU
TGlHxWFr72uZFuJTLXdwwwIDAQABo3sweTAJBgNVHRMEAjAAMCwGCWCGSAGG+EIB
DQQfFh1PcGVuU1NMIEdlbmVyYXRlZCBDZXJ0aWZpY2F0ZTAdBgNVHQ4EFgQUIhSI
NVUGu9OLAgtCV/p1VYHo6HwwHwYDVR0jBBgwFoAUaAoWocHipXzDU8u6mJMIU/a6
li4wDQYJKoZIhvcNAQELBQADggEBACc+DGt/qocTDncZSmeT70gi7aVkdSfaafl7
vOwrM+BFYglxAoLcQMsXwjv7rSH8BLhYrRZqUVnPOwJZ+X8lByLfiURX9xKun7ye
g/1z7Y3QJRxmK8/FYfIAjgn53htG+c5cmD0+yh3FgPli22qFO2JMdsqy5FVVSi0t
jh9Qa/Uw4zE8Zb10LH2Tfw8UCkASizUZb/A9e3OZeRkFjJRRokuGnHS8FX5Ux54z
pJngHuJgB/2VHXGvROKVM5InfFwVht0ezTUd5AcTABb9KPmAoGNyqLV+rIozBtah
nY/vqX/JxYMjPTNIEXc8U0/wpgMEzdJ/iNog5M1ElKKA2uzU7F8=
-----END CERTIFICATE-----
