Certificate:
    Data:
        Version: 3 (0x2)
        Serial Number: 16924006939124634249 (0xeade26a4d6c51289)
    Signature Algorithm: sha256WithRSAEncryption
        Issuer: C=XX, ST=Karnataka, O=Default Company Ltd, CN=localhost
        Validity
            Not Before: Apr  9 12:47:23 2016 GMT
            Not After : Apr  9 12:47:23 2017 GMT
        Subject: C=XX, ST=Karnataka, L=Default City, O=Default Company Ltd, CN=localhost/emailAddress=signer@example.com
        Subject Public Key Info:
            Public Key Algorithm: rsaEncryption
                Public-Key: (2048 bit)
                Modulus:
                    00:c8:e3:72:74:84:c8:d7:f0:62:83:68:ae:6a:92:
                    4a:61:86:94:23:5e:51:79:7b:ed:a8:0a:3b:85:b1:
                    09:64:50:9f:c2:64:5d:8c:10:5e:f4:94:01:27:af:
                    a3:ef:d7:ea:80:23:56:22:23:ee:bf:15:e7:13:4d:
                    6e:c8:33:68:14:7f:64:7c:f3:99:56:2d:2f:86:07:
                    75:8e:37:65:fc:0e:18:a5:dc:a8:79:5e:60:80:02:
                    bd:51:da:2c:33:12:43:9f:2d:f1:1f:e9:c5:a2:d9:
                    8f:2a:d5:8f:28:5c:8d:77:f7:07:d0:0d:5c:ff:4d:
                    85:9d:66:19:7a:5d:85:f5:65:14:64:6d:c6:ff:43:
                    83:80:9f:6d:14:26:86:57:cb:ba:83:13:41:08:9f:
                    96:2c:9d:74:f3:a4:2b:ea:ab:f8:c0:73:82:d1:fe:
                    0c:43:44:ab:c6:cc:1b:88:21:3a:03:d8:e3:ea:9b:
                    9b:51:e5:c7:ec:70:d8:db:0d:1d:92:7a:73:ca:2b:
                    60:4a:46:c8:da:be:8c:4f:ac:34:02:99:53:4d:cf:
                    7c:ae:eb:9a:04:5a:09:6f:fd:5e:45:50:1d:b6:39:
                    11:47:ff:ab:4b:02:11:75:60:2c:24:7d:dc:82:36:
                    01:d3:70:e2:9d:94:b9:2e:6a:bc:61:ac:35:0c:95:
                    cf:fd
                Exponent: 65537 (0x10001)
        X509v3 extensions:
            X509v3 Basic Constraints: 
                CA:FALSE
            Netscape Comment: 
                OpenSSL Generated Certificate
            X509v3 Subject Key Identifier: 
                89:3E:E1:27:90:E2:97:24:ED:9F:F5:B8:9A:04:C4:D0:8D:C8:17:F1
            X509v3 Authority Key Identifier: 
                keyid:68:0A:16:A1:C1:E2:A5:7C:C3:53:CB:BA:98:93:08:53:F6:BA:96:2E

    Signature Algorithm: sha256WithRSAEncryption
         79:47:f1:76:60:b7:47:92:cf:49:7b:ff:11:bf:64:77:c4:c6:
         48:6b:b0:fb:3a:bf:88:d3:b1:63:2c:b9:ab:3c:3d:e8:8e:34:
         d1:6f:3e:60:db:24:ce:ea:09:0a:2f:45:d7:da:c0:12:f1:ae:
         7f:d6:76:37:62:3a:80:3a:06:da:0f:6d:b9:b4:bd:f9:c3:18:
         54:49:0f:d0:41:74:da:e9:94:be:12:35:65:a9:03:35:68:56:
         a0:d7:65:fc:43:5c:4a:12:37:5a:31:fa:0f:ed:e7:49:cc:4a:
         35:f3:9a:42:ab:71:e5:ca:2a:8f:d9:7b:b1:2e:b1:3e:e5:0e:
         06:1e:03:49:18:7a:67:6a:81:89:46:35:ec:bb:5d:c0:2a:1b:
         4e:9c:3b:f3:9b:d4:a3:ca:61:b2:8f:ef:4f:e0:af:1c:10:45:
         3c:da:79:ba:ce:d6:76:17:4c:df:1d:b8:fd:75:81:a4:76:f6:
         e9:84:9c:46:c4:df:6d:82:7c:1d:88:8b:8b:70:cd:75:e5:f5:
         35:8f:6a:f0:45:f2:66:3c:54:f3:cf:ce:12:dc:39:73:09:06:
         9e:1c:f5:fe:3f:f9:69:25:57:f3:ee:ca:35:1a:88:c8:41:03:
         61:3e:b3:f1:f9:4b:65:15:ed:4d:9b:c1:1c:47:35:79:4c:fe:
         a7:9f:ae:6c
-----BEGIN CERTIFICATE-----
MIID3zCCAsegAwIBAgIJAOreJqTWxRKJMA0GCSqGSIb3DQEBCwUAMFMxCzAJBgNV
BAYTAlhYMRIwEAYDVQQIDAlLYXJuYXRha2ExHDAaBgNVBAoME0RlZmF1bHQgQ29t
cGFueSBMdGQxEjAQBgNVBAMMCWxvY2FsaG9zdDAeFw0xNjA0MDkxMjQ3MjNaFw0x
NzA0MDkxMjQ3MjNaMIGNMQswCQYDVQQGEwJYWDESMBAGA1UECAwJS2FybmF0YWth
MRUwEwYDVQQHDAxEZWZhdWx0IENpdHkxHDAaBgNVBAoME0RlZmF1bHQgQ29tcGFu
eSBMdGQxEjAQBgNVBAMMCWxvY2FsaG9zdDEhMB8GCSqGSIb3DQEJARYSc2lnbmVy
QGV4YW1wbGUuY29tMIIBIjANBgkqhkiG9w0BAQEFAAOCAQ8AMIIBCgKCAQEAyONy
dITI1/Big2iuapJKYYaUI15ReXvtqAo7hbEJZFCfwmRdjBBe9JQBJ6+j79fqgCNW
IiPuvxXnE01uyDNoFH9kfPOZVi0vhgd1jjdl/A4YpdyoeV5ggAK9UdosMxJDny3x
H+nFotmPKtWPKFyNd/cH0A1c/02FnWYZel2F9WUUZG3G/0ODgJ9tFCaGV8u6gxNB
CJ+WLJ1086Qr6qv4wHOC0f4MQ0SrxswbiCE6A9jj6pubUeXH7HDY2w0dknpzyitg
SkbI2r6MT6w0AplTTc98ruuaBFoJb/1eRVAdtjkRR/+rSwIRdWAsJH3cgjYB03Di
nZS5Lmq8Yaw1DJXP/QIDAQABo3sweTAJBgNVHRMEAjAAMCwGCWCGSAGG+EIBDQQf
Fh1PcGVuU1NMIEdlbmVyYXRlZCBDZXJ0aWZpY2F0ZTAdBgNVHQ4EFgQUiT7hJ5Di
lyTtn/W4mgTE0I3IF/EwHwYDVR0jBBgwFoAUaAoWocHipXzDU8u6mJMIU/a6li4w
DQYJKoZIhvcNAQELBQADggEBAHlH8XZgt0eSz0l7/xG/ZHfExkhrsPs6v4jTsWMs
uas8PeiONNFvPmDbJM7qCQovRdfawBLxrn/WdjdiOoA6BtoPbbm0vfnDGFRJD9BB
dNrplL4SNWWpAzVoVqDXZfxDXEoSN1ox+g/t50nMSjXzmkKrceXKKo/Ze7EusT7l
DgYeA0kYemdqgYlGNey7XcAqG06cO/Ob1KPKYbKP70/grxwQRTzaebrO1nYXTN8d
uP11gaR29umEnEbE322CfB2Ii4twzXXl9TWPavBF8mY8VPPPzhLcOXMJBp4c9f4/
+WklV/PuyjUaiMhBA2E+s/H5S2UV7U2bwRxHNXlM/qefrmw=
-----END CERTIFICATE-----
