Certificate:
    Data:
        Version: 3 (0x2)
        Serial Number: 16924006939124634248 (0xeade26a4d6c51288)
    Signature Algorithm: sha256WithRSAEncryption
        Issuer: C=XX, ST=Karnataka, O=Default Company Ltd, CN=localhost
        Validity
            Not Before: Apr  9 12:47:23 2016 GMT
            Not After : Apr  9 12:47:23 2017 GMT
        Subject: C=XX, ST=Karnataka, L=Default City, O=Default Company Ltd, CN=localhost
        Subject Public Key Info:
            Public Key Algorithm: rsaEncryption
                Public-Key: (2048 bit)
                Modulus:
                    00:af:8f:62:f1:32:3a:a7:2c:6f:c7:e2:97:c0:47:
                    cb:2e:bc:98:2d:ef:87:61:b0:03:f9:9f:47:52:b2:
                    0d:8a:f8:d0:66:9f:68:f1:22:65:58:e1:ed:bf:40:
                    cc:58:51:3a:b7:1c:eb:3b:72:3f:6c:b6:7a:82:b1:
                    57:27:19:cd:76:36:73:bb:e4:e3:03:bc:72:cf:3b:
                    6a:ec:6d:79:8d:5b:0e:a3:73:9a:be:8c:ae:fd:ec:
                    f1:2f:3b:5a:95:56:5e:a6:17:37:32:32:44:e4:a9:
                    4a:42:cc:ed:23:27:71:e3:35:5e:2f:8e:f6:93:f3:
                    c0:a0:af:a3:32:c2:15:53:1a:dd:ca:96:3b:f7:76:
                    37:b0:0f:6b:da:92:9b:89:79:4e:ef:a2:41:2c:ec:
                    95:83:c8:7f:4b:b7:4b:bc:2c:0e:93:67:d2:17:b4:
                    3c:a6:57:41:49:89:18:c6:29:e7:04:4a:8a:68:53:
                    ef:22:3a:ba:ac:54:71:b4:85:08:e7:4b:0d:48:b0:
                    d3:05:d5:f3:fb:2f:e3:cf:fa:04:57:84:40:7b:79:
                    d8:b2:71:38:3c:56:cc:40:71:17:76:c7:97:f7:f2:
                    4a:6b:78:04:40:e2:90:d0:95:15:06:c0:f3:26:3e:
                    87:bf:31:24:84:5b:52:25:c7:99:65:ef:35:76:80:
                    2b:03
                Exponent: 65537 (0x10001)
        X509v3 extensions:
            X509v3 Basic Constraints: 
                CA:FALSE
            Netscape Comment: 
                OpenSSL Generated Certificate
            X509v3 Subject Key Identifier: 
                A7:48:A9:BA:3B:ED:23:25:8E:79:30:DF:F5:EF:B9:AC:62:4A:51:7D
            X509v3 Authority Key Identifier: 
                keyid:68:0A:16:A1:C1:E2:A5:7C:C3:53:CB:BA:98:93:08:53:F6:BA:96:2E

    Signature Algorithm: sha256WithRSAEncryption
         20:b9:d7:3c:e2:14:a4:79:9b:1e:01:4e:65:24:6f:b7:25:72:
         32:94:4a:04:90:59:7b:5b:04:74:6b:f3:b9:b2:17:2a:28:fc:
         cf:73:d3:09:83:44:ad:07:7f:0e:f7:f6:7e:3e:40:8f:f7:27:
         de:d7:f2:c8:41:cd:96:07:62:01:20:65:0e:9b:a8:fd:94:6c:
         28:f8:67:61:f9:ab:8e:b5:7e:b1:38:70:d6:10:98:1e:9d:d2:
         e6:c6:7a:62:5d:45:23:fe:f2:0e:4f:fd:4d:e3:ce:9e:f2:73:
         93:cb:10:fa:e0:b9:7e:81:74:ba:7e:d0:a1:c0:95:5b:9b:c5:
         c9:b7:0c:a1:c6:75:c7:40:a6:4b:6c:83:91:b6:db:59:38:6c:
         3c:1b:00:55:4c:09:24:64:5f:24:b4:d0:0d:74:75:44:cf:41:
         bb:13:ce:54:28:1c:b4:5e:e9:2b:0a:13:d4:50:0f:51:01:44:
         33:fe:bd:5d:a1:81:5a:7f:d0:e8:fb:9d:94:19:af:b1:15:ba:
         37:31:22:67:cc:e9:ce:5e:f8:b9:33:3b:1e:87:5b:ba:30:4e:
         19:2d:4c:1f:4f:b2:74:de:8d:39:11:39:4f:90:e6:86:24:db:
         3b:0b:48:21:81:2b:25:c5:6d:3e:83:68:ec:e0:e5:cf:8b:e8:
         ff:21:d6:23
-----BEGIN CERTIFICATE-----
MIIDuzCCAqOgAwIBAgIJAOreJqTWxRKIMA0GCSqGSIb3DQEBCwUAMFMxCzAJBgNV
BAYTAlhYMRIwEAYDVQQIDAlLYXJuYXRha2ExHDAaBgNVBAoME0RlZmF1bHQgQ29t
cGFueSBMdGQxEjAQBgNVBAMMCWxvY2FsaG9zdDAeFw0xNjA0MDkxMjQ3MjNaFw0x
NzA0MDkxMjQ3MjNaMGoxCzAJBgNVBAYTAlhYMRIwEAYDVQQIDAlLYXJuYXRha2Ex
FTATBgNVBAcMDERlZmF1bHQgQ2l0eTEcMBoGA1UECgwTRGVmYXVsdCBDb21wYW55
IEx0ZDESMBAGA1UEAwwJbG9jYWxob3N0MIIBIjANBgkqhkiG9w0BAQEFAAOCAQ8A
MIIBCgKCAQEAr49i8TI6pyxvx+KXwEfLLryYLe+HYbAD+Z9HUrINivjQZp9o8SJl
WOHtv0DMWFE6txzrO3I/bLZ6grFXJxnNdjZzu+TjA7xyzztq7G15jVsOo3Oavoyu
/ezxLztalVZephc3MjJE5KlKQsztIydx4zVeL472k/PAoK+jMsIVUxrdypY793Y3
sA9r2pKbiXlO76JBLOyVg8h/S7dLvCwOk2fSF7Q8pldBSYkYxinnBEqKaFPvIjq6
rFRxtIUI50sNSLDTBdXz+y/jz/oEV4RAe3nYsnE4PFbMQHEXdseX9/JKa3gEQOKQ
0JUVBsDzJj6HvzEkhFtSJceZZe81doArAwIDAQABo3sweTAJBgNVHRMEAjAAMCwG
CWCGSAGG+EIBDQQfFh1PcGVuU1NMIEdlbmVyYXRlZCBDZXJ0aWZpY2F0ZTAdBgNV
HQ4EFgQUp0ipujvtIyWOeTDf9e+5rGJKUX0wHwYDVR0jBBgwFoAUaAoWocHipXzD
U8u6mJMIU/a6li4wDQYJKoZIhvcNAQELBQADggEBACC51zziFKR5mx4BTmUkb7cl
cjKUSgSQWXtbBHRr87myFyoo/M9z0wmDRK0Hfw739n4+QI/3J97X8shBzZYHYgEg
ZQ6bqP2UbCj4Z2H5q461frE4cNYQmB6d0ubGemJdRSP+8g5P/U3jzp7yc5PLEPrg
uX6BdLp+0KHAlVubxcm3DKHGdcdApktsg5G221k4bDwbAFVMCSRkXyS00A10dUTP
QbsTzlQoHLRe6SsKE9RQD1EBRDP+vV2hgVp/0Oj7nZQZr7EVujcxImfM6c5e+Lkz
Ox6HW7owThktTB9PsnTejTkROU+Q5oYk2zsLSCGBKyXFbT6DaOzg5c+L6P8h1iM=
-----END CERTIFICATE-----
-----BEGIN RSA PRIVATE KEY-----
MIIEowIBAAKCAQEAr49i8TI6pyxvx+KXwEfLLryYLe+HYbAD+Z9HUrINivjQZp9o
8SJlWOHtv0DMWFE6txzrO3I/bLZ6grFXJxnNdjZzu+TjA7xyzztq7G15jVsOo3Oa
voyu/ezxLztalVZephc3MjJE5KlKQsztIydx4zVeL472k/PAoK+jMsIVUxrdypY7
93Y3sA9r2pKbiXlO76JBLOyVg8h/S7dLvCwOk2fSF7Q8pldBSYkYxinnBEqKaFPv
Ijq6rFRxtIUI50sNSLDTBdXz+y/jz/oEV4RAe3nYsnE4PFbMQHEXdseX9/JKa3gE
QOKQ0JUVBsDzJj6HvzEkhFtSJceZZe81doArAwIDAQABAoIBAEvu3sKoEQphg++W
qEA4TT9nvwKPSaUM9osvQzAXZxgmyiy44jD5yZAKGETSiA/jAlxVG8FYhupEevSw
M5vr4xwwLRqlwzLIfXf4oSSlrR9gtRIpXFLyknWt2BuvtlxFQSbhf7QsXfPw7Pe7
nw3Hb9DwMk6rrScNFNHrZdD8dTC+BJ3a9uKKhi4aQ8c9jlCLf3uq+7ECNpdbBe5f
VPlWaUaF/xijxtP9hAG+3y1lZNtyoNgcf8LTms+GwvtLAINeGLtmim/ksbdFI5/2
VSclucmJbcLoqZl5KcbEk8AuzlRph0oO0XhXonbjmlNlGWh6shMWiemZxwn50oX7
CUC0fuECgYEA2gwWNT3Hnwipo0vPAWzjCFPL9sQW07MrDblRz1HfNfa38wOnqw9S
XPhNrZ/sBK6rsB6DBwB3tuBpuVjNgWtmARNiQcpZw+YhpwRnFOW+Ggn7FkzOeE8X
H3ab5ioFRaY/UWhCL6H02e8KyvDSojXhu422tUz+Lq6d1Wr2ZonyHlsCgYEAzh4g
eAky01C2KaXtHRmgX1ymcufel+CtEvvjXpslkpyDUIqRQr/IeQhcKFVvFYi5WQa8
4Gg/V6aMpV/DWAfIi0z1EavFAFflsnZo24/y1BEe489C8QmZmM/YKw+4huyawOoD
GOL6Z7Cy1CohSAUUSinHMOrak7Cqmdegpu+cFnkCgYAJ+X+Sk+7r0YOhGrivggGo
wdyUv0ekC5AuoomhiEdDurOThFlJM/w6kIlNJgGv/SWRevPXgCf5z65Gck+EWhti
dTaLd+w/T+m+MC9e/1uA6W/5By5yxntyTwS2tLllBEPlP3W3pBsFVTATNI0OKpTW
9ZakGI+QJyDFQI1hB3Jx/QKBgCab1hEmB/M1Ryn9/rBYwIWcYUFc1YE1gLXxoOFz
xlH0J1TK3/LU4cRqIHkdp7Us6ysV7ANNA7Bzbhz8FydCLfqJ683nkvtBe7E2JOYb
zKyUmGirxipIVhEdvawzQalkYIiKTRI4UhdiLd04Fwvah7ZspPcwxsirawluLpWW
hHJhAoGBAJFAHwWzsfrb01lKPtsoaP1Qg5KK44csfWc2EYNsWfIpHprcDSPBCxDy
GDBxEoKNi4qZd8juyX1+KRpvlJAlf3TXCvwgR+fh1faoyziEVf4I90DBTEv2TaXn
F23zScUm7GydyhDWS/dXIgWUNmahozAf0pNWTvSDvSd6zLuMffnx
-----END RSA PRIVATE KEY-----
